target datalayout = "e-m:e-p270:32:32-p271:32:32-p272:64:64-i64:64-i128:128-f80:128-n8:16:32:64-S128"
target triple = "x86_64-pc-linux-gnu"

%struct.mime_header_st = type { ptr, ptr, ptr }

@.str = private unnamed_addr constant [34 x i8] c"../openssl/crypto/asn1/asn_mime.c\00", align 1
@.str.35 = private unnamed_addr constant [13 x i8] c"content-type\00", align 1
@.str.40 = private unnamed_addr constant [9 x i8] c"type: %s\00", align 1
@__func__.SMIME_text = private unnamed_addr constant [11 x i8] c"SMIME_text\00", align 1
@.str.44 = private unnamed_addr constant [11 x i8] c"text/plain\00", align 1

; Function Attrs: inlinehint nounwind uwtable
define internal ptr @sk_MIME_HEADER_value(ptr noundef %0, i32 noundef %1) #3 {
  %3 = alloca ptr, align 8
  %4 = alloca i32, align 4
  store ptr %0, ptr %3, align 8, !tbaa !56
  store i32 %1, ptr %4, align 4, !tbaa !10
  %5 = load ptr, ptr %3, align 8, !tbaa !56
  %6 = load i32, ptr %4, align 4, !tbaa !10
  %7 = call ptr @OPENSSL_sk_value(ptr noundef %5, i32 noundef %6)
  ret ptr %7
}

; Function Attrs: inlinehint nounwind uwtable
define internal i32 @sk_MIME_HEADER_find(ptr noundef %0, ptr noundef %1) #3 {
  %3 = alloca ptr, align 8
  %4 = alloca ptr, align 8
  store ptr %0, ptr %3, align 8, !tbaa !56
  store ptr %1, ptr %4, align 8, !tbaa !60
  %5 = load ptr, ptr %3, align 8, !tbaa !56
  %6 = load ptr, ptr %4, align 8, !tbaa !60
  %7 = call i32 @OPENSSL_sk_find(ptr noundef %5, ptr noundef %6)
  ret i32 %7
}

; Function Attrs: inlinehint nounwind uwtable
define internal void @sk_MIME_HEADER_pop_free(ptr noundef %0, ptr noundef %1) #3 {
  %3 = alloca ptr, align 8
  %4 = alloca ptr, align 8
  store ptr %0, ptr %3, align 8, !tbaa !56
  store ptr %1, ptr %4, align 8, !tbaa !74
  %5 = load ptr, ptr %3, align 8, !tbaa !56
  %6 = load ptr, ptr %4, align 8, !tbaa !74
  call void @OPENSSL_sk_pop_free(ptr noundef %5, ptr noundef %6)
  ret void
}

; Function Attrs: nounwind uwtable
define internal ptr @mime_hdr_find(ptr noundef %0, ptr noundef %1) #0 {
  %3 = alloca ptr, align 8
  %4 = alloca ptr, align 8
  %5 = alloca %struct.mime_header_st, align 8
  %6 = alloca i32, align 4
  store ptr %0, ptr %3, align 8, !tbaa !56
  store ptr %1, ptr %4, align 8, !tbaa !20
  call void @llvm.lifetime.start.p0(i64 24, ptr %5) #5
  call void @llvm.lifetime.start.p0(i64 4, ptr %6) #5
  %7 = load ptr, ptr %4, align 8, !tbaa !20
  %8 = getelementptr inbounds nuw %struct.mime_header_st, ptr %5, i32 0, i32 0
  store ptr %7, ptr %8, align 8, !tbaa !73
  %9 = getelementptr inbounds nuw %struct.mime_header_st, ptr %5, i32 0, i32 1
  store ptr null, ptr %9, align 8, !tbaa !62
  %10 = getelementptr inbounds nuw %struct.mime_header_st, ptr %5, i32 0, i32 2
  store ptr null, ptr %10, align 8, !tbaa !71
  %11 = load ptr, ptr %3, align 8, !tbaa !56
  %12 = call i32 @sk_MIME_HEADER_find(ptr noundef %11, ptr noundef %5)
  store i32 %12, ptr %6, align 4, !tbaa !10
  %13 = load ptr, ptr %3, align 8, !tbaa !56
  %14 = load i32, ptr %6, align 4, !tbaa !10
  %15 = call ptr @sk_MIME_HEADER_value(ptr noundef %13, i32 noundef %14)
  call void @llvm.lifetime.end.p0(i64 4, ptr %6) #5
  call void @llvm.lifetime.end.p0(i64 24, ptr %5) #5
  ret ptr %15
}

; Function Attrs: nounwind uwtable
define i32 @SMIME_text(ptr noundef %0, ptr noundef %1) #0 {
  %3 = alloca i32, align 4
  %4 = alloca ptr, align 8
  %5 = alloca ptr, align 8
  %6 = alloca [4096 x i8], align 16
  %7 = alloca i32, align 4
  %8 = alloca ptr, align 8
  %9 = alloca ptr, align 8
  %10 = alloca i32, align 4
  store ptr %0, ptr %4, align 8, !tbaa !3
  store ptr %1, ptr %5, align 8, !tbaa !3
  call void @llvm.lifetime.start.p0(i64 4096, ptr %6) #5
  call void @llvm.lifetime.start.p0(i64 4, ptr %7) #5
  call void @llvm.lifetime.start.p0(i64 8, ptr %8) #5
  call void @llvm.lifetime.start.p0(i64 8, ptr %9) #5
  %11 = load ptr, ptr %4, align 8, !tbaa !3
  %12 = call ptr @mime_parse_hdr(ptr noundef %11)
  store ptr %12, ptr %8, align 8, !tbaa !56
  %13 = icmp eq ptr %12, null
  br i1 %13, label %14, label %15

14:                                               ; preds = %2
  call void @ERR_new()
  call void @ERR_set_debug(ptr noundef @.str, i32 noundef 582, ptr noundef @__func__.SMIME_text)
  call void (i32, i32, ptr, ...) @ERR_set_error(i32 noundef 13, i32 noundef 207, ptr noundef null)
  store i32 0, ptr %3, align 4
  store i32 1, ptr %10, align 4
  br label %54

15:                                               ; preds = %2
  %16 = load ptr, ptr %8, align 8, !tbaa !56
  %17 = call ptr @mime_hdr_find(ptr noundef %16, ptr noundef @.str.35)
  store ptr %17, ptr %9, align 8, !tbaa !60
  %18 = icmp eq ptr %17, null
  br i1 %18, label %24, label %19

19:                                               ; preds = %15
  %20 = load ptr, ptr %9, align 8, !tbaa !60
  %21 = getelementptr inbounds nuw %struct.mime_header_st, ptr %20, i32 0, i32 1
  %22 = load ptr, ptr %21, align 8, !tbaa !62
  %23 = icmp eq ptr %22, null
  br i1 %23, label %24, label %26

24:                                               ; preds = %19, %15
  call void @ERR_new()
  call void @ERR_set_debug(ptr noundef @.str, i32 noundef 587, ptr noundef @__func__.SMIME_text)
  call void (i32, i32, ptr, ...) @ERR_set_error(i32 noundef 13, i32 noundef 206, ptr noundef null)
  %25 = load ptr, ptr %8, align 8, !tbaa !56
  call void @sk_MIME_HEADER_pop_free(ptr noundef %25, ptr noundef @mime_hdr_free)
  store i32 0, ptr %3, align 4
  store i32 1, ptr %10, align 4
  br label %54

26:                                               ; preds = %19
  %27 = load ptr, ptr %9, align 8, !tbaa !60
  %28 = getelementptr inbounds nuw %struct.mime_header_st, ptr %27, i32 0, i32 1
  %29 = load ptr, ptr %28, align 8, !tbaa !62
  %30 = call i32 @strcmp(ptr noundef %29, ptr noundef @.str.44) #6
  %31 = icmp ne i32 %30, 0
  br i1 %31, label %32, label %37

32:                                               ; preds = %26
  call void @ERR_new()
  call void @ERR_set_debug(ptr noundef @.str, i32 noundef 592, ptr noundef @__func__.SMIME_text)
  %33 = load ptr, ptr %9, align 8, !tbaa !60
  %34 = getelementptr inbounds nuw %struct.mime_header_st, ptr %33, i32 0, i32 1
  %35 = load ptr, ptr %34, align 8, !tbaa !62
  call void (i32, i32, ptr, ...) @ERR_set_error(i32 noundef 13, i32 noundef 205, ptr noundef @.str.40, ptr noundef %35)
  %36 = load ptr, ptr %8, align 8, !tbaa !56
  call void @sk_MIME_HEADER_pop_free(ptr noundef %36, ptr noundef @mime_hdr_free)
  store i32 0, ptr %3, align 4
  store i32 1, ptr %10, align 4
  br label %54

37:                                               ; preds = %26
  %38 = load ptr, ptr %8, align 8, !tbaa !56
  call void @sk_MIME_HEADER_pop_free(ptr noundef %38, ptr noundef @mime_hdr_free)
  br label %39

39:                                               ; preds = %44, %37
  %40 = load ptr, ptr %4, align 8, !tbaa !3
  %41 = getelementptr inbounds [4096 x i8], ptr %6, i64 0, i64 0
  %42 = call i32 @BIO_read(ptr noundef %40, ptr noundef %41, i32 noundef 4096)
  store i32 %42, ptr %7, align 4, !tbaa !10
  %43 = icmp sgt i32 %42, 0
  br i1 %43, label %44, label %49

44:                                               ; preds = %39
  %45 = load ptr, ptr %5, align 8, !tbaa !3
  %46 = getelementptr inbounds [4096 x i8], ptr %6, i64 0, i64 0
  %47 = load i32, ptr %7, align 4, !tbaa !10
  %48 = call i32 @BIO_write(ptr noundef %45, ptr noundef %46, i32 noundef %47)
  br label %39, !llvm.loop !82

49:                                               ; preds = %39
  %50 = load i32, ptr %7, align 4, !tbaa !10
  %51 = icmp slt i32 %50, 0
  br i1 %51, label %52, label %53

52:                                               ; preds = %49
  store i32 0, ptr %3, align 4
  store i32 1, ptr %10, align 4
  br label %54

53:                                               ; preds = %49
  store i32 1, ptr %3, align 4
  store i32 1, ptr %10, align 4
  br label %54

54:                                               ; preds = %53, %52, %32, %24, %14
  call void @llvm.lifetime.end.p0(i64 8, ptr %9) #5
  call void @llvm.lifetime.end.p0(i64 8, ptr %8) #5
  call void @llvm.lifetime.end.p0(i64 4, ptr %7) #5
  call void @llvm.lifetime.end.p0(i64 4096, ptr %6) #5
  %55 = load i32, ptr %3, align 4
  ret i32 %55
}