; Function Attrs: nounwind uwtable
define range(i32 0, 2) i32 @SMIME_text(ptr noundef %0, ptr noundef %1) local_unnamed_addr #0 {
  %3 = alloca %struct.mime_header_st, align 8
  %4 = alloca [4096 x i8], align 16
  call void @llvm.lifetime.start.p0(i64 4096, ptr nonnull %4) #6
  %5 = tail call fastcc ptr @mime_parse_hdr(ptr noundef %0)
  %6 = icmp eq ptr %5, null
  br i1 %6, label %7, label %8

7:                                                ; preds = %2
  tail call void @ERR_new() #6
  tail call void @ERR_set_debug(ptr noundef nonnull @.str, i32 noundef 582, ptr noundef nonnull @__func__.SMIME_text) #6
  tail call void (i32, i32, ptr, ...) @ERR_set_error(i32 noundef 13, i32 noundef 207, ptr noundef null) #6
  br label %29

8:                                                ; preds = %2
  call void @llvm.lifetime.start.p0(i64 24, ptr nonnull %3) #6
  store ptr @.str.35, ptr %3, align 8, !tbaa !41
  %9 = getelementptr inbounds nuw i8, ptr %3, i64 8
  call void @llvm.memset.p0.i64(ptr noundef nonnull align 8 dereferenceable(16) %9, i8 0, i64 16, i1 false)
  %10 = call i32 @OPENSSL_sk_find(ptr noundef nonnull %5, ptr noundef nonnull %3) #6
  %11 = call ptr @OPENSSL_sk_value(ptr noundef nonnull %5, i32 noundef %10) #6
  call void @llvm.lifetime.end.p0(i64 24, ptr nonnull %3) #6
  %12 = icmp eq ptr %11, null
  br i1 %12, label %17, label %13

13:                                               ; preds = %8
  %14 = getelementptr inbounds nuw i8, ptr %11, i64 8
  %15 = load ptr, ptr %14, align 8, !tbaa !44
  %16 = icmp eq ptr %15, null
  br i1 %16, label %17, label %18

17:                                               ; preds = %13, %8
  call void @ERR_new() #6
  call void @ERR_set_debug(ptr noundef nonnull @.str, i32 noundef 587, ptr noundef nonnull @__func__.SMIME_text) #6
  call void (i32, i32, ptr, ...) @ERR_set_error(i32 noundef 13, i32 noundef 206, ptr noundef null) #6
  call void @OPENSSL_sk_pop_free(ptr noundef nonnull %5, ptr noundef nonnull @mime_hdr_free) #6
  br label %29

18:                                               ; preds = %13
  %19 = call i32 @strcmp(ptr noundef nonnull dereferenceable(1) %15, ptr noundef nonnull dereferenceable(11) @.str.44) #7
  %.not = icmp eq i32 %19, 0
  br i1 %.not, label %22, label %20

20:                                               ; preds = %18
  call void @ERR_new() #6
  call void @ERR_set_debug(ptr noundef nonnull @.str, i32 noundef 592, ptr noundef nonnull @__func__.SMIME_text) #6
  %21 = load ptr, ptr %14, align 8, !tbaa !44
  call void (i32, i32, ptr, ...) @ERR_set_error(i32 noundef 13, i32 noundef 205, ptr noundef nonnull @.str.40, ptr noundef %21) #6
  call void @OPENSSL_sk_pop_free(ptr noundef nonnull %5, ptr noundef nonnull @mime_hdr_free) #6
  br label %29

22:                                               ; preds = %18
  call void @OPENSSL_sk_pop_free(ptr noundef nonnull %5, ptr noundef nonnull @mime_hdr_free) #6
  %23 = call i32 @BIO_read(ptr noundef %0, ptr noundef nonnull %4, i32 noundef 4096) #6
  %24 = icmp sgt i32 %23, 0
  br i1 %24, label %.lr.ph, label %._crit_edge

.lr.ph:                                           ; preds = %22, %.lr.ph
  %25 = phi i32 [ %27, %.lr.ph ], [ %23, %22 ]
  %26 = call i32 @BIO_write(ptr noundef %1, ptr noundef nonnull %4, i32 noundef %25) #6
  %27 = call i32 @BIO_read(ptr noundef %0, ptr noundef nonnull %4, i32 noundef 4096) #6
  %28 = icmp sgt i32 %27, 0
  br i1 %28, label %.lr.ph, label %._crit_edge, !llvm.loop !55

._crit_edge:                                      ; preds = %.lr.ph, %22
  %.lcssa = phi i32 [ %23, %22 ], [ %27, %.lr.ph ]
  %.not16 = icmp eq i32 %.lcssa, 0
  %. = zext i1 %.not16 to i32
  br label %29

29:                                               ; preds = %._crit_edge, %20, %17, %7
  %.0 = phi i32 [ 0, %7 ], [ 0, %17 ], [ 0, %20 ], [ %., %._crit_edge ]
  call void @llvm.lifetime.end.p0(i64 4096, ptr nonnull %4) #6
  ret i32 %.0
}